; Function Attrs: mustprogress uwtable
define void @_ZN6duckdb18StructColumnWriter13FinalizeWriteERNS_17ColumnWriterStateE(ptr noundef nonnull align 8 dereferenceable(96) %0, ptr noundef nonnull align 8 dereferenceable(112) %1) unnamed_addr #0 align 2 {
  %3 = getelementptr inbounds nuw i8, ptr %0, i64 72
  %4 = getelementptr inbounds nuw i8, ptr %0, i64 80
  %5 = load ptr, ptr %4, align 8, !tbaa !517
  %6 = load ptr, ptr %3, align 8, !tbaa !518
  %.not = icmp eq ptr %5, %6
  br i1 %.not, label %._crit_edge, label %.lr.ph

.lr.ph:                                           ; preds = %2
  %7 = getelementptr inbounds nuw i8, ptr %1, i64 104
  %8 = getelementptr inbounds nuw i8, ptr %1, i64 128
  br label %9

._crit_edge:                                      ; preds = %9, %2
  ret void

9:                                                ; preds = %.lr.ph, %9
  %.09 = phi i64 [ 0, %.lr.ph ], [ %23, %9 ]
  %10 = load i64, ptr %7, align 8, !tbaa !454
  %11 = tail call noundef nonnull align 8 dereferenceable(8) ptr @_ZN6duckdb6vectorINS_10unique_ptrINS_17ColumnWriterStateESt14default_deleteIS2_ELb1EEELb1EEixEm(ptr noundef nonnull align 8 dereferenceable(24) %8, i64 noundef %.09)
  %12 = tail call noundef ptr @_ZNK6duckdb10unique_ptrINS_17ColumnWriterStateESt14default_deleteIS1_ELb1EEptEv(ptr noundef nonnull align 8 dereferenceable(8) %11)
  %13 = getelementptr inbounds nuw i8, ptr %12, i64 104
  %14 = load i64, ptr %13, align 8, !tbaa !454
  %15 = add i64 %14, %10
  store i64 %15, ptr %13, align 8, !tbaa !454
  %16 = tail call noundef nonnull align 8 dereferenceable(8) ptr @_ZN6duckdb6vectorINS_10unique_ptrINS_12ColumnWriterESt14default_deleteIS2_ELb1EEELb1EEixEm(ptr noundef nonnull align 8 dereferenceable(24) %3, i64 noundef %.09)
  %17 = tail call noundef ptr @_ZNK6duckdb10unique_ptrINS_12ColumnWriterESt14default_deleteIS1_ELb1EEptEv(ptr noundef nonnull align 8 dereferenceable(8) %16)
  %18 = tail call noundef nonnull align 8 dereferenceable(8) ptr @_ZN6duckdb6vectorINS_10unique_ptrINS_17ColumnWriterStateESt14default_deleteIS2_ELb1EEELb1EEixEm(ptr noundef nonnull align 8 dereferenceable(24) %8, i64 noundef %.09)
  %19 = tail call noundef nonnull align 8 dereferenceable(112) ptr @_ZNK6duckdb10unique_ptrINS_17ColumnWriterStateESt14default_deleteIS1_ELb1EEdeEv(ptr noundef nonnull align 8 dereferenceable(8) %18)
  %20 = load ptr, ptr %17, align 8, !tbaa !3
  %21 = getelementptr inbounds nuw i8, ptr %20, i64 72
  %22 = load ptr, ptr %21, align 8
  tail call void %22(ptr noundef nonnull align 8 dereferenceable(65) %17, ptr noundef nonnull align 8 dereferenceable(112) %19)
  %23 = add nuw i64 %.09, 1
  %24 = load ptr, ptr %4, align 8, !tbaa !517
  %25 = load ptr, ptr %3, align 8, !tbaa !518
  %26 = ptrtoint ptr %24 to i64
  %27 = ptrtoint ptr %25 to i64
  %28 = sub i64 %26, %27
  %29 = ashr exact i64 %28, 3
  %30 = icmp ult i64 %23, %29
  br i1 %30, label %9, label %._crit_edge, !llvm.loop !546
}